; Function Attrs: nofree norecurse nosync nounwind memory(readwrite, inaccessiblemem: none) uwtable
define internal void @color_quantize(ptr nocapture noundef readonly %0, ptr nocapture noundef readonly %1, ptr nocapture noundef readonly %2, i32 noundef %3) #2 {
  %5 = getelementptr inbounds i8, ptr %0, i64 624
  %6 = load ptr, ptr %5, align 8
  %7 = getelementptr inbounds i8, ptr %6, i64 48
  %8 = load ptr, ptr %7, align 8
  %9 = getelementptr inbounds i8, ptr %0, i64 136
  %10 = load i32, ptr %9, align 8
  %11 = getelementptr inbounds i8, ptr %0, i64 144
  %12 = load i32, ptr %11, align 8
  %13 = icmp slt i32 %3, 1
  %.not31 = icmp eq i32 %10, 0
  %or.cond = select i1 %13, i1 true, i1 %.not31
  br i1 %or.cond, label %._crit_edge, label %.lr.ph.split

.lr.ph.split:                                     ; preds = %4
  %14 = icmp sgt i32 %12, 0
  %wide.trip.count49 = zext nneg i32 %3 to i64
  br i1 %14, label %.preheader.lr.ph.us.preheader, label %.preheader.lr.ph.preheader

.preheader.lr.ph.preheader:                       ; preds = %.lr.ph.split
  %15 = zext i32 %10 to i64
  br label %.preheader.lr.ph

.preheader.lr.ph.us.preheader:                    ; preds = %.lr.ph.split
  %16 = zext nneg i32 %12 to i64
  %wide.trip.count44 = zext nneg i32 %12 to i64
  br label %.preheader.lr.ph.us

.preheader.lr.ph.us:                              ; preds = %.preheader.lr.ph.us.preheader, %._crit_edge35.split.us.us
  %indvars.iv46 = phi i64 [ 0, %.preheader.lr.ph.us.preheader ], [ %indvars.iv.next47, %._crit_edge35.split.us.us ]
  %17 = getelementptr inbounds ptr, ptr %1, i64 %indvars.iv46
  %18 = load ptr, ptr %17, align 8
  %19 = getelementptr inbounds ptr, ptr %2, i64 %indvars.iv46
  %20 = load ptr, ptr %19, align 8
  br label %.preheader.us.us

.preheader.us.us:                                 ; preds = %._crit_edge.us.us, %.preheader.lr.ph.us
  %.02334.us.us = phi i32 [ %10, %.preheader.lr.ph.us ], [ %31, %._crit_edge.us.us ]
  %.02533.us.us = phi ptr [ %20, %.preheader.lr.ph.us ], [ %30, %._crit_edge.us.us ]
  %.02632.us.us = phi ptr [ %18, %.preheader.lr.ph.us ], [ %scevgep, %._crit_edge.us.us ]
  br label %21

21:                                               ; preds = %21, %.preheader.us.us
  %indvars.iv42 = phi i64 [ %indvars.iv.next43, %21 ], [ 0, %.preheader.us.us ]
  %.029.us.us = phi i8 [ %29, %21 ], [ 0, %.preheader.us.us ]
  %.127.us.us = phi ptr [ %24, %21 ], [ %.02632.us.us, %.preheader.us.us ]
  %22 = getelementptr inbounds ptr, ptr %8, i64 %indvars.iv42
  %23 = load ptr, ptr %22, align 8
  %24 = getelementptr inbounds i8, ptr %.127.us.us, i64 1
  %25 = load i8, ptr %.127.us.us, align 1
  %26 = zext i8 %25 to i64
  %27 = getelementptr inbounds i8, ptr %23, i64 %26
  %28 = load i8, ptr %27, align 1
  %29 = add i8 %28, %.029.us.us
  %indvars.iv.next43 = add nuw nsw i64 %indvars.iv42, 1
  %exitcond45.not = icmp eq i64 %indvars.iv.next43, %wide.trip.count44
  br i1 %exitcond45.not, label %._crit_edge.us.us, label %21, !llvm.loop !27

._crit_edge.us.us:                                ; preds = %21
  %scevgep = getelementptr i8, ptr %.02632.us.us, i64 %16
  %30 = getelementptr inbounds i8, ptr %.02533.us.us, i64 1
  store i8 %29, ptr %.02533.us.us, align 1
  %31 = add i32 %.02334.us.us, -1
  %.not.us.us = icmp eq i32 %31, 0
  br i1 %.not.us.us, label %._crit_edge35.split.us.us, label %.preheader.us.us, !llvm.loop !28

._crit_edge35.split.us.us:                        ; preds = %._crit_edge.us.us
  %indvars.iv.next47 = add nuw nsw i64 %indvars.iv46, 1
  %exitcond50.not = icmp eq i64 %indvars.iv.next47, %wide.trip.count49
  br i1 %exitcond50.not, label %._crit_edge, label %.preheader.lr.ph.us, !llvm.loop !29

.preheader.lr.ph:                                 ; preds = %.preheader.lr.ph.preheader, %.preheader.lr.ph
  %indvars.iv = phi i64 [ 0, %.preheader.lr.ph.preheader ], [ %indvars.iv.next, %.preheader.lr.ph ]
  %32 = getelementptr inbounds ptr, ptr %2, i64 %indvars.iv
  %33 = load ptr, ptr %32, align 8
  tail call void @llvm.memset.p0.i64(ptr align 1 %33, i8 0, i64 %15, i1 false)
  %indvars.iv.next = add nuw nsw i64 %indvars.iv, 1
  %exitcond.not = icmp eq i64 %indvars.iv.next, %wide.trip.count49
  br i1 %exitcond.not, label %._crit_edge, label %.preheader.lr.ph, !llvm.loop !29

._crit_edge:                                      ; preds = %.preheader.lr.ph, %._crit_edge35.split.us.us, %4
  ret void
}